; Function Attrs: mustprogress uwtable
define void @_ZNK6icu_7510DateFormat11parseObjectERKNS_13UnicodeStringERNS_11FormattableERNS_13ParsePositionE(ptr noundef nonnull align 8 dereferenceable(352) %this, ptr noundef nonnull align 8 dereferenceable(64) %source, ptr noundef nonnull align 8 dereferenceable(112) %result, ptr noundef nonnull align 8 dereferenceable(16) %pos) unnamed_addr #3 align 2 {
entry:
  %ec.i = alloca i32, align 4
  call void @llvm.lifetime.start.p0(i64 4, ptr nonnull %ec.i)
  %fCalendar.i = getelementptr inbounds i8, ptr %this, i64 328
  %0 = load ptr, ptr %fCalendar.i, align 8
  %cmp.not.i = icmp eq ptr %0, null
  br i1 %cmp.not.i, label %_ZNK6icu_7510DateFormat5parseERKNS_13UnicodeStringERNS_13ParsePositionE.exit, label %if.then.i

if.then.i:                                        ; preds = %entry
  %vtable.i = load ptr, ptr %0, align 8
  %vfn.i = getelementptr inbounds i8, ptr %vtable.i, i64 24
  %1 = load ptr, ptr %vfn.i, align 8
  %call.i = tail call noundef ptr %1(ptr noundef nonnull align 8 dereferenceable(618) %0)
  %cmp3.not.i = icmp eq ptr %call.i, null
  br i1 %cmp3.not.i, label %_ZNK6icu_7510DateFormat5parseERKNS_13UnicodeStringERNS_13ParsePositionE.exit, label %if.then4.i

if.then4.i:                                       ; preds = %if.then.i
  %index.i.i = getelementptr inbounds i8, ptr %pos, i64 8
  %2 = load i32, ptr %index.i.i, align 8
  tail call void @_ZN6icu_758Calendar5clearEv(ptr noundef nonnull align 8 dereferenceable(618) %call.i)
  %vtable6.i = load ptr, ptr %this, align 8
  %vfn7.i = getelementptr inbounds i8, ptr %vtable6.i, i64 88
  %3 = load ptr, ptr %vfn7.i, align 8
  tail call void %3(ptr noundef nonnull align 8 dereferenceable(352) %this, ptr noundef nonnull align 8 dereferenceable(64) %source, ptr noundef nonnull align 8 dereferenceable(618) %call.i, ptr noundef nonnull align 8 dereferenceable(16) %pos)
  %4 = load i32, ptr %index.i.i, align 8
  %cmp9.not.i = icmp eq i32 %4, %2
  br i1 %cmp9.not.i, label %delete.notnull.i, label %if.then10.i

if.then10.i:                                      ; preds = %if.then4.i
  store i32 0, ptr %ec.i, align 4
  %call.i.i = call noundef double @_ZNK6icu_758Calendar15getTimeInMillisER10UErrorCode(ptr noundef nonnull align 8 dereferenceable(618) %call.i, ptr noundef nonnull align 4 dereferenceable(4) %ec.i)
  %5 = load i32, ptr %ec.i, align 4
  %cmp.i.i = icmp slt i32 %5, 1
  br i1 %cmp.i.i, label %delete.notnull.i, label %if.then13.i

if.then13.i:                                      ; preds = %if.then10.i
  store i32 %2, ptr %index.i.i, align 8
  %errorIndex.i.i = getelementptr inbounds i8, ptr %pos, i64 12
  store i32 %2, ptr %errorIndex.i.i, align 4
  br label %delete.notnull.i

delete.notnull.i:                                 ; preds = %if.then13.i, %if.then10.i, %if.then4.i
  %d.0.i = phi double [ 0.000000e+00, %if.then13.i ], [ %call.i.i, %if.then10.i ], [ 0.000000e+00, %if.then4.i ]
  %vtable15.i = load ptr, ptr %call.i, align 8
  %vfn16.i = getelementptr inbounds i8, ptr %vtable15.i, i64 8
  %6 = load ptr, ptr %vfn16.i, align 8
  call void %6(ptr noundef nonnull align 8 dereferenceable(618) %call.i) #13
  br label %_ZNK6icu_7510DateFormat5parseERKNS_13UnicodeStringERNS_13ParsePositionE.exit

_ZNK6icu_7510DateFormat5parseERKNS_13UnicodeStringERNS_13ParsePositionE.exit: ; preds = %entry, %if.then.i, %delete.notnull.i
  %d.1.i = phi double [ %d.0.i, %delete.notnull.i ], [ 0.000000e+00, %if.then.i ], [ 0.000000e+00, %entry ]
  call void @llvm.lifetime.end.p0(i64 4, ptr nonnull %ec.i)
  call void @_ZN6icu_7511Formattable7setDateEd(ptr noundef nonnull align 8 dereferenceable(112) %result, double noundef %d.1.i)
  ret void
}